target datalayout = "e-m:e-p270:32:32-p271:32:32-p272:64:64-i64:64-i128:128-f80:128-n8:16:32:64-S128"
target triple = "x86_64-pc-linux-gnu"

%struct.H5SM_sohm_t = type { i32, i32, i32, %union.anon }
%union.anon = type { %struct.H5O_mesg_loc_t }
%struct.H5O_mesg_loc_t = type { i32, i64 }
%struct.H5SM_heap_loc_t = type { i64, %union.H5O_fheap_id_t }
%union.H5O_fheap_id_t = type { i64 }
%struct.H5SM_bt2_ctx_t = type { i8 }

@H5SM_init_g = external global i8, align 1
@H5_libterm_g = external global i8, align 1

; Function Attrs: nounwind uwtable
define i32 @H5SM__message_decode(ptr noundef %0, ptr noundef %1, ptr noundef %2) #0 {
  %4 = alloca ptr, align 8
  %5 = alloca ptr, align 8
  %6 = alloca ptr, align 8
  %7 = alloca ptr, align 8
  %8 = alloca ptr, align 8
  store ptr %0, ptr %4, align 8, !tbaa !64
  store ptr %1, ptr %5, align 8, !tbaa !3
  store ptr %2, ptr %6, align 8, !tbaa !3
  call void @llvm.lifetime.start.p0(i64 8, ptr %7) #6
  %9 = load ptr, ptr %6, align 8, !tbaa !3
  store ptr %9, ptr %7, align 8, !tbaa !65
  call void @llvm.lifetime.start.p0(i64 8, ptr %8) #6
  %10 = load ptr, ptr %5, align 8, !tbaa !3
  store ptr %10, ptr %8, align 8, !tbaa !3
  %11 = load i8, ptr @H5SM_init_g, align 1, !tbaa !11, !range !13, !noundef !14
  %12 = trunc i8 %11 to i1
  br i1 %12, label %17, label %13

13:                                               ; preds = %3
  %14 = load i8, ptr @H5_libterm_g, align 1, !tbaa !11, !range !13, !noundef !14
  %15 = trunc i8 %14 to i1
  %16 = xor i1 %15, true
  br label %17

17:                                               ; preds = %13, %3
  %18 = phi i1 [ true, %3 ], [ %16, %13 ]
  %19 = xor i1 %18, true
  %20 = xor i1 %19, true
  %21 = zext i1 %20 to i32
  %22 = sext i32 %21 to i64
  %23 = call i64 @llvm.expect.i64(i64 %22, i64 1)
  %24 = icmp ne i64 %23, 0
  br i1 %24, label %25, label %183

25:                                               ; preds = %17
  %26 = load ptr, ptr %4, align 8, !tbaa !64
  %27 = getelementptr inbounds nuw i8, ptr %26, i32 1
  store ptr %27, ptr %4, align 8, !tbaa !64
  %28 = load i8, ptr %26, align 1, !tbaa !22
  %29 = zext i8 %28 to i32
  %30 = load ptr, ptr %8, align 8, !tbaa !3
  %31 = getelementptr inbounds nuw %struct.H5SM_sohm_t, ptr %30, i32 0, i32 0
  store i32 %29, ptr %31, align 8, !tbaa !15
  br label %32

32:                                               ; preds = %25
  %33 = load ptr, ptr %4, align 8, !tbaa !64
  %34 = load i8, ptr %33, align 1, !tbaa !22
  %35 = zext i8 %34 to i32
  %36 = and i32 %35, 255
  %37 = load ptr, ptr %8, align 8, !tbaa !3
  %38 = getelementptr inbounds nuw %struct.H5SM_sohm_t, ptr %37, i32 0, i32 1
  store i32 %36, ptr %38, align 4, !tbaa !26
  %39 = load ptr, ptr %4, align 8, !tbaa !64
  %40 = getelementptr inbounds nuw i8, ptr %39, i32 1
  store ptr %40, ptr %4, align 8, !tbaa !64
  %41 = load ptr, ptr %4, align 8, !tbaa !64
  %42 = load i8, ptr %41, align 1, !tbaa !22
  %43 = zext i8 %42 to i32
  %44 = and i32 %43, 255
  %45 = shl i32 %44, 8
  %46 = load ptr, ptr %8, align 8, !tbaa !3
  %47 = getelementptr inbounds nuw %struct.H5SM_sohm_t, ptr %46, i32 0, i32 1
  %48 = load i32, ptr %47, align 4, !tbaa !26
  %49 = or i32 %48, %45
  store i32 %49, ptr %47, align 4, !tbaa !26
  %50 = load ptr, ptr %4, align 8, !tbaa !64
  %51 = getelementptr inbounds nuw i8, ptr %50, i32 1
  store ptr %51, ptr %4, align 8, !tbaa !64
  %52 = load ptr, ptr %4, align 8, !tbaa !64
  %53 = load i8, ptr %52, align 1, !tbaa !22
  %54 = zext i8 %53 to i32
  %55 = and i32 %54, 255
  %56 = shl i32 %55, 16
  %57 = load ptr, ptr %8, align 8, !tbaa !3
  %58 = getelementptr inbounds nuw %struct.H5SM_sohm_t, ptr %57, i32 0, i32 1
  %59 = load i32, ptr %58, align 4, !tbaa !26
  %60 = or i32 %59, %56
  store i32 %60, ptr %58, align 4, !tbaa !26
  %61 = load ptr, ptr %4, align 8, !tbaa !64
  %62 = getelementptr inbounds nuw i8, ptr %61, i32 1
  store ptr %62, ptr %4, align 8, !tbaa !64
  %63 = load ptr, ptr %4, align 8, !tbaa !64
  %64 = load i8, ptr %63, align 1, !tbaa !22
  %65 = zext i8 %64 to i32
  %66 = and i32 %65, 255
  %67 = shl i32 %66, 24
  %68 = load ptr, ptr %8, align 8, !tbaa !3
  %69 = getelementptr inbounds nuw %struct.H5SM_sohm_t, ptr %68, i32 0, i32 1
  %70 = load i32, ptr %69, align 4, !tbaa !26
  %71 = or i32 %70, %67
  store i32 %71, ptr %69, align 4, !tbaa !26
  %72 = load ptr, ptr %4, align 8, !tbaa !64
  %73 = getelementptr inbounds nuw i8, ptr %72, i32 1
  store ptr %73, ptr %4, align 8, !tbaa !64
  br label %74

74:                                               ; preds = %32
  br label %75

75:                                               ; preds = %74
  %76 = load ptr, ptr %8, align 8, !tbaa !3
  %77 = getelementptr inbounds nuw %struct.H5SM_sohm_t, ptr %76, i32 0, i32 0
  %78 = load i32, ptr %77, align 8, !tbaa !15
  %79 = icmp eq i32 %78, 0
  br i1 %79, label %80, label %138

80:                                               ; preds = %75
  br label %81

81:                                               ; preds = %80
  %82 = load ptr, ptr %4, align 8, !tbaa !64
  %83 = load i8, ptr %82, align 1, !tbaa !22
  %84 = zext i8 %83 to i32
  %85 = and i32 %84, 255
  %86 = zext i32 %85 to i64
  %87 = load ptr, ptr %8, align 8, !tbaa !3
  %88 = getelementptr inbounds nuw %struct.H5SM_sohm_t, ptr %87, i32 0, i32 3
  %89 = getelementptr inbounds nuw %struct.H5SM_heap_loc_t, ptr %88, i32 0, i32 0
  store i64 %86, ptr %89, align 8, !tbaa !22
  %90 = load ptr, ptr %4, align 8, !tbaa !64
  %91 = getelementptr inbounds nuw i8, ptr %90, i32 1
  store ptr %91, ptr %4, align 8, !tbaa !64
  %92 = load ptr, ptr %4, align 8, !tbaa !64
  %93 = load i8, ptr %92, align 1, !tbaa !22
  %94 = zext i8 %93 to i32
  %95 = and i32 %94, 255
  %96 = shl i32 %95, 8
  %97 = zext i32 %96 to i64
  %98 = load ptr, ptr %8, align 8, !tbaa !3
  %99 = getelementptr inbounds nuw %struct.H5SM_sohm_t, ptr %98, i32 0, i32 3
  %100 = getelementptr inbounds nuw %struct.H5SM_heap_loc_t, ptr %99, i32 0, i32 0
  %101 = load i64, ptr %100, align 8, !tbaa !22
  %102 = or i64 %101, %97
  store i64 %102, ptr %100, align 8, !tbaa !22
  %103 = load ptr, ptr %4, align 8, !tbaa !64
  %104 = getelementptr inbounds nuw i8, ptr %103, i32 1
  store ptr %104, ptr %4, align 8, !tbaa !64
  %105 = load ptr, ptr %4, align 8, !tbaa !64
  %106 = load i8, ptr %105, align 1, !tbaa !22
  %107 = zext i8 %106 to i32
  %108 = and i32 %107, 255
  %109 = shl i32 %108, 16
  %110 = zext i32 %109 to i64
  %111 = load ptr, ptr %8, align 8, !tbaa !3
  %112 = getelementptr inbounds nuw %struct.H5SM_sohm_t, ptr %111, i32 0, i32 3
  %113 = getelementptr inbounds nuw %struct.H5SM_heap_loc_t, ptr %112, i32 0, i32 0
  %114 = load i64, ptr %113, align 8, !tbaa !22
  %115 = or i64 %114, %110
  store i64 %115, ptr %113, align 8, !tbaa !22
  %116 = load ptr, ptr %4, align 8, !tbaa !64
  %117 = getelementptr inbounds nuw i8, ptr %116, i32 1
  store ptr %117, ptr %4, align 8, !tbaa !64
  %118 = load ptr, ptr %4, align 8, !tbaa !64
  %119 = load i8, ptr %118, align 1, !tbaa !22
  %120 = zext i8 %119 to i32
  %121 = and i32 %120, 255
  %122 = shl i32 %121, 24
  %123 = zext i32 %122 to i64
  %124 = load ptr, ptr %8, align 8, !tbaa !3
  %125 = getelementptr inbounds nuw %struct.H5SM_sohm_t, ptr %124, i32 0, i32 3
  %126 = getelementptr inbounds nuw %struct.H5SM_heap_loc_t, ptr %125, i32 0, i32 0
  %127 = load i64, ptr %126, align 8, !tbaa !22
  %128 = or i64 %127, %123
  store i64 %128, ptr %126, align 8, !tbaa !22
  %129 = load ptr, ptr %4, align 8, !tbaa !64
  %130 = getelementptr inbounds nuw i8, ptr %129, i32 1
  store ptr %130, ptr %4, align 8, !tbaa !64
  br label %131

131:                                              ; preds = %81
  br label %132

132:                                              ; preds = %131
  %133 = load ptr, ptr %8, align 8, !tbaa !3
  %134 = getelementptr inbounds nuw %struct.H5SM_sohm_t, ptr %133, i32 0, i32 3
  %135 = getelementptr inbounds nuw %struct.H5SM_heap_loc_t, ptr %134, i32 0, i32 1
  %136 = getelementptr inbounds [8 x i8], ptr %135, i64 0, i64 0
  %137 = load ptr, ptr %4, align 8, !tbaa !64
  call void @llvm.memcpy.p0.p0.i64(ptr align 8 %136, ptr align 1 %137, i64 8, i1 false)
  br label %182

138:                                              ; preds = %75
  %139 = load ptr, ptr %4, align 8, !tbaa !64
  %140 = getelementptr inbounds nuw i8, ptr %139, i32 1
  store ptr %140, ptr %4, align 8, !tbaa !64
  %141 = load ptr, ptr %4, align 8, !tbaa !64
  %142 = getelementptr inbounds nuw i8, ptr %141, i32 1
  store ptr %142, ptr %4, align 8, !tbaa !64
  %143 = load i8, ptr %141, align 1, !tbaa !22
  %144 = zext i8 %143 to i32
  %145 = load ptr, ptr %8, align 8, !tbaa !3
  %146 = getelementptr inbounds nuw %struct.H5SM_sohm_t, ptr %145, i32 0, i32 2
  store i32 %144, ptr %146, align 8, !tbaa !24
  br label %147

147:                                              ; preds = %138
  %148 = load ptr, ptr %4, align 8, !tbaa !64
  %149 = load i8, ptr %148, align 1, !tbaa !22
  %150 = zext i8 %149 to i32
  %151 = and i32 %150, 255
  %152 = trunc i32 %151 to i16
  %153 = zext i16 %152 to i32
  %154 = load ptr, ptr %8, align 8, !tbaa !3
  %155 = getelementptr inbounds nuw %struct.H5SM_sohm_t, ptr %154, i32 0, i32 3
  %156 = getelementptr inbounds nuw %struct.H5O_mesg_loc_t, ptr %155, i32 0, i32 0
  store i32 %153, ptr %156, align 8, !tbaa !22
  %157 = load ptr, ptr %4, align 8, !tbaa !64
  %158 = getelementptr inbounds nuw i8, ptr %157, i32 1
  store ptr %158, ptr %4, align 8, !tbaa !64
  %159 = load ptr, ptr %4, align 8, !tbaa !64
  %160 = load i8, ptr %159, align 1, !tbaa !22
  %161 = zext i8 %160 to i32
  %162 = and i32 %161, 255
  %163 = shl i32 %162, 8
  %164 = trunc i32 %163 to i16
  %165 = zext i16 %164 to i32
  %166 = load ptr, ptr %8, align 8, !tbaa !3
  %167 = getelementptr inbounds nuw %struct.H5SM_sohm_t, ptr %166, i32 0, i32 3
  %168 = getelementptr inbounds nuw %struct.H5O_mesg_loc_t, ptr %167, i32 0, i32 0
  %169 = load i32, ptr %168, align 8, !tbaa !22
  %170 = or i32 %169, %165
  store i32 %170, ptr %168, align 8, !tbaa !22
  %171 = load ptr, ptr %4, align 8, !tbaa !64
  %172 = getelementptr inbounds nuw i8, ptr %171, i32 1
  store ptr %172, ptr %4, align 8, !tbaa !64
  br label %173

173:                                              ; preds = %147
  br label %174

174:                                              ; preds = %173
  %175 = load ptr, ptr %7, align 8, !tbaa !65
  %176 = getelementptr inbounds nuw %struct.H5SM_bt2_ctx_t, ptr %175, i32 0, i32 0
  %177 = load i8, ptr %176, align 1, !tbaa !67
  %178 = zext i8 %177 to i64
  %179 = load ptr, ptr %8, align 8, !tbaa !3
  %180 = getelementptr inbounds nuw %struct.H5SM_sohm_t, ptr %179, i32 0, i32 3
  %181 = getelementptr inbounds nuw %struct.H5O_mesg_loc_t, ptr %180, i32 0, i32 1
  call void @H5F_addr_decode_len(i64 noundef %178, ptr noundef %4, ptr noundef %181)
  br label %182

182:                                              ; preds = %174, %132
  br label %183

183:                                              ; preds = %182, %17
  call void @llvm.lifetime.end.p0(i64 8, ptr %8) #6
  call void @llvm.lifetime.end.p0(i64 8, ptr %7) #6
  ret i32 0
}