; Function Attrs: nounwind uwtable
define noundef i32 @H5SM__message_decode(ptr noundef %0, ptr noundef %1, ptr noundef readonly captures(none) %2) local_unnamed_addr #0 {
  %4 = alloca ptr, align 8
  %5 = load i8, ptr @H5SM_init_g, align 1, !tbaa !3, !range !7, !noundef !8
  %6 = trunc nuw i8 %5 to i1
  %7 = load i8, ptr @H5_libterm_g, align 1, !range !7
  %8 = trunc nuw i8 %7 to i1
  %9 = xor i1 %8, true
  %10 = select i1 %6, i1 true, i1 %9
  br i1 %10, label %11, label %75, !prof !9

11:                                               ; preds = %3
  %12 = getelementptr inbounds nuw i8, ptr %0, i64 1
  %13 = load i8, ptr %0, align 1, !tbaa !19
  %14 = zext i8 %13 to i32
  store i32 %14, ptr %1, align 8, !tbaa !10
  %15 = load i8, ptr %12, align 1, !tbaa !19
  %16 = zext i8 %15 to i32
  %17 = getelementptr inbounds nuw i8, ptr %1, i64 4
  store i32 %16, ptr %17, align 4, !tbaa !24
  %18 = getelementptr inbounds nuw i8, ptr %0, i64 2
  %19 = load i8, ptr %18, align 1, !tbaa !19
  %20 = zext i8 %19 to i32
  %21 = shl nuw nsw i32 %20, 8
  %22 = or disjoint i32 %21, %16
  store i32 %22, ptr %17, align 4, !tbaa !24
  %23 = getelementptr inbounds nuw i8, ptr %0, i64 3
  %24 = load i8, ptr %23, align 1, !tbaa !19
  %25 = zext i8 %24 to i32
  %26 = shl nuw nsw i32 %25, 16
  %27 = or disjoint i32 %26, %22
  store i32 %27, ptr %17, align 4, !tbaa !24
  %28 = getelementptr inbounds nuw i8, ptr %0, i64 4
  %29 = load i8, ptr %28, align 1, !tbaa !19
  %30 = zext i8 %29 to i32
  %31 = shl nuw i32 %30, 24
  %32 = or disjoint i32 %31, %27
  store i32 %32, ptr %17, align 4, !tbaa !24
  %33 = icmp eq i8 %13, 0
  br i1 %33, label %34, label %57

34:                                               ; preds = %11
  %35 = getelementptr inbounds nuw i8, ptr %0, i64 5
  %36 = load i8, ptr %35, align 1, !tbaa !19
  %37 = zext i8 %36 to i64
  %38 = getelementptr inbounds nuw i8, ptr %1, i64 16
  store i64 %37, ptr %38, align 8, !tbaa !19
  %39 = getelementptr inbounds nuw i8, ptr %0, i64 6
  %40 = load i8, ptr %39, align 1, !tbaa !19
  %41 = zext i8 %40 to i64
  %42 = shl nuw nsw i64 %41, 8
  %43 = or disjoint i64 %42, %37
  store i64 %43, ptr %38, align 8, !tbaa !19
  %44 = getelementptr inbounds nuw i8, ptr %0, i64 7
  %45 = load i8, ptr %44, align 1, !tbaa !19
  %46 = zext i8 %45 to i64
  %47 = shl nuw nsw i64 %46, 16
  %48 = or disjoint i64 %47, %43
  store i64 %48, ptr %38, align 8, !tbaa !19
  %49 = getelementptr inbounds nuw i8, ptr %0, i64 8
  %50 = load i8, ptr %49, align 1, !tbaa !19
  %51 = zext i8 %50 to i64
  %52 = shl nuw nsw i64 %51, 24
  %53 = or disjoint i64 %52, %48
  store i64 %53, ptr %38, align 8, !tbaa !19
  %54 = getelementptr inbounds nuw i8, ptr %0, i64 9
  %55 = getelementptr inbounds nuw i8, ptr %1, i64 24
  %56 = load i64, ptr %54, align 1
  store i64 %56, ptr %55, align 8
  br label %75

57:                                               ; preds = %11
  %58 = getelementptr inbounds nuw i8, ptr %0, i64 6
  %59 = getelementptr inbounds nuw i8, ptr %0, i64 7
  %60 = load i8, ptr %58, align 1, !tbaa !19
  %61 = zext i8 %60 to i32
  %62 = getelementptr inbounds nuw i8, ptr %1, i64 8
  store i32 %61, ptr %62, align 8, !tbaa !22
  %63 = load i8, ptr %59, align 1, !tbaa !19
  %64 = zext i8 %63 to i32
  %65 = getelementptr inbounds nuw i8, ptr %1, i64 16
  store i32 %64, ptr %65, align 8, !tbaa !19
  %66 = getelementptr inbounds nuw i8, ptr %0, i64 8
  %67 = load i8, ptr %66, align 1, !tbaa !19
  %68 = zext i8 %67 to i32
  %69 = shl nuw nsw i32 %68, 8
  %70 = or disjoint i32 %69, %64
  store i32 %70, ptr %65, align 8, !tbaa !19
  %71 = getelementptr inbounds nuw i8, ptr %0, i64 9
  store ptr %71, ptr %4, align 8, !tbaa !57
  %72 = load i8, ptr %2, align 1, !tbaa !58
  %73 = zext i8 %72 to i64
  %74 = getelementptr inbounds nuw i8, ptr %1, i64 24
  call void @H5F_addr_decode_len(i64 noundef %73, ptr noundef nonnull %4, ptr noundef nonnull %74) #5
  br label %75

75:                                               ; preds = %34, %57, %3
  ret i32 0
}